target datalayout = "e-m:e-p270:32:32-p271:32:32-p272:64:64-i64:64-i128:128-f80:128-n8:16:32:64-S128"
target triple = "x86_64-pc-linux-gnu"

%struct.Aig_Man_t_ = type { ptr, ptr, ptr, ptr, ptr, ptr, ptr, %struct.Aig_Obj_t_, i32, i32, i32, i32, i32, i32, [7 x i32], i32, ptr, i32, ptr, i32, ptr, i32, i32, i32, ptr, i32, i32, i32, i32, i32, ptr, ptr, i32, ptr, ptr, i32, ptr, ptr, i32, i32, i32, ptr, ptr, ptr, ptr, ptr, ptr, ptr, ptr, ptr, ptr, ptr, ptr, ptr, ptr, i32, ptr, ptr, ptr, ptr, i32, i64, i64, i64, ptr, ptr }
%struct.Aig_Obj_t_ = type { %union.anon, ptr, ptr, i64, i32, i32, %union.anon.0 }
%union.anon = type { ptr }
%union.anon.0 = type { ptr }
%struct.Vec_Ptr_t_ = type { i32, i32, ptr }
%struct.Vec_Int_t_ = type { i32, i32, ptr }
%struct.Fra_Man_t_ = type { ptr, ptr, ptr, i32, ptr, i32, ptr, ptr, ptr, i32, ptr, ptr, ptr, ptr, i32, ptr, i64, i64, ptr, ptr, i32, ptr, i32, i32, i32, i32, i32, i32, i32, i32, i32, i32, i32, i32, i32, i32, i32, i32, i32, i32, i32, i64, i64, i64, i64, i64, i64, i64, i64, i64, i64, i64 }
%struct.Fra_Cla_t_ = type { ptr, ptr, ptr, ptr, ptr, ptr, ptr, ptr, ptr, i32, i32, ptr, ptr, ptr, ptr }

; Function Attrs: inlinehint nounwind uwtable
define internal ptr @Vec_PtrEntry(ptr noundef %0, i32 noundef %1) #2 {
  %3 = alloca ptr, align 8
  %4 = alloca i32, align 4
  store ptr %0, ptr %3, align 8, !tbaa !31
  store i32 %1, ptr %4, align 4, !tbaa !8
  %5 = load ptr, ptr %3, align 8, !tbaa !31
  %6 = getelementptr inbounds nuw %struct.Vec_Ptr_t_, ptr %5, i32 0, i32 2
  %7 = load ptr, ptr %6, align 8, !tbaa !38
  %8 = load i32, ptr %4, align 4, !tbaa !8
  %9 = sext i32 %8 to i64
  %10 = getelementptr inbounds ptr, ptr %7, i64 %9
  %11 = load ptr, ptr %10, align 8, !tbaa !39
  ret ptr %11
}

; Function Attrs: inlinehint nounwind uwtable
define internal ptr @Aig_NotCond(ptr noundef %0, i32 noundef %1) #2 {
  %3 = alloca ptr, align 8
  %4 = alloca i32, align 4
  store ptr %0, ptr %3, align 8, !tbaa !28
  store i32 %1, ptr %4, align 4, !tbaa !8
  %5 = load ptr, ptr %3, align 8, !tbaa !28
  %6 = ptrtoint ptr %5 to i64
  %7 = load i32, ptr %4, align 4, !tbaa !8
  %8 = sext i32 %7 to i64
  %9 = xor i64 %6, %8
  %10 = inttoptr i64 %9 to ptr
  ret ptr %10
}

; Function Attrs: inlinehint nounwind uwtable
define internal i32 @Fra_ImpRight(i32 noundef %0) #2 {
  %2 = alloca i32, align 4
  store i32 %0, ptr %2, align 4, !tbaa !8
  %3 = load i32, ptr %2, align 4, !tbaa !8
  %4 = ashr i32 %3, 16
  ret i32 %4
}

; Function Attrs: inlinehint nounwind uwtable
define internal ptr @Aig_ManObj(ptr noundef %0, i32 noundef %1) #2 {
  %3 = alloca ptr, align 8
  %4 = alloca i32, align 4
  store ptr %0, ptr %3, align 8, !tbaa !89
  store i32 %1, ptr %4, align 4, !tbaa !8
  %5 = load ptr, ptr %3, align 8, !tbaa !89
  %6 = getelementptr inbounds nuw %struct.Aig_Man_t_, ptr %5, i32 0, i32 4
  %7 = load ptr, ptr %6, align 8, !tbaa !16
  %8 = icmp ne ptr %7, null
  br i1 %8, label %9, label %15

9:                                                ; preds = %2
  %10 = load ptr, ptr %3, align 8, !tbaa !89
  %11 = getelementptr inbounds nuw %struct.Aig_Man_t_, ptr %10, i32 0, i32 4
  %12 = load ptr, ptr %11, align 8, !tbaa !16
  %13 = load i32, ptr %4, align 4, !tbaa !8
  %14 = call ptr @Vec_PtrEntry(ptr noundef %12, i32 noundef %13)
  br label %16

15:                                               ; preds = %2
  br label %16

16:                                               ; preds = %15, %9
  %17 = phi ptr [ %14, %9 ], [ null, %15 ]
  ret ptr %17
}

; Function Attrs: inlinehint nounwind uwtable
define internal i32 @Fra_ImpLeft(i32 noundef %0) #2 {
  %2 = alloca i32, align 4
  store i32 %0, ptr %2, align 4, !tbaa !8
  %3 = load i32, ptr %2, align 4, !tbaa !8
  %4 = and i32 %3, 65535
  ret i32 %4
}

; Function Attrs: inlinehint nounwind uwtable
define internal i32 @Vec_IntEntry(ptr noundef %0, i32 noundef %1) #2 {
  %3 = alloca ptr, align 8
  %4 = alloca i32, align 4
  store ptr %0, ptr %3, align 8, !tbaa !41
  store i32 %1, ptr %4, align 4, !tbaa !8
  %5 = load ptr, ptr %3, align 8, !tbaa !41
  %6 = getelementptr inbounds nuw %struct.Vec_Int_t_, ptr %5, i32 0, i32 2
  %7 = load ptr, ptr %6, align 8, !tbaa !48
  %8 = load i32, ptr %4, align 4, !tbaa !8
  %9 = sext i32 %8 to i64
  %10 = getelementptr inbounds i32, ptr %7, i64 %9
  %11 = load i32, ptr %10, align 4, !tbaa !8
  ret i32 %11
}

; Function Attrs: inlinehint nounwind uwtable
define internal i32 @Aig_ManCoNum(ptr noundef %0) #2 {
  %2 = alloca ptr, align 8
  store ptr %0, ptr %2, align 8, !tbaa !89
  %3 = load ptr, ptr %2, align 8, !tbaa !89
  %4 = getelementptr inbounds nuw %struct.Aig_Man_t_, ptr %3, i32 0, i32 14
  %5 = getelementptr inbounds [7 x i32], ptr %4, i64 0, i64 3
  %6 = load i32, ptr %5, align 4, !tbaa !8
  ret i32 %6
}

; Function Attrs: inlinehint nounwind uwtable
define internal i32 @Vec_IntSize(ptr noundef %0) #2 {
  %2 = alloca ptr, align 8
  store ptr %0, ptr %2, align 8, !tbaa !41
  %3 = load ptr, ptr %2, align 8, !tbaa !41
  %4 = getelementptr inbounds nuw %struct.Vec_Int_t_, ptr %3, i32 0, i32 1
  %5 = load i32, ptr %4, align 4, !tbaa !45
  ret i32 %5
}

; Function Attrs: nounwind uwtable
define void @Fra_ImpRecordInManager(ptr noundef %0, ptr noundef %1) #0 {
  %3 = alloca ptr, align 8
  %4 = alloca ptr, align 8
  %5 = alloca ptr, align 8
  %6 = alloca ptr, align 8
  %7 = alloca ptr, align 8
  %8 = alloca i32, align 4
  %9 = alloca i32, align 4
  %10 = alloca i32, align 4
  %11 = alloca i32, align 4
  store ptr %0, ptr %3, align 8, !tbaa !53
  store ptr %1, ptr %4, align 8, !tbaa !89
  call void @llvm.lifetime.start.p0(i64 8, ptr %5) #10
  call void @llvm.lifetime.start.p0(i64 8, ptr %6) #10
  call void @llvm.lifetime.start.p0(i64 8, ptr %7) #10
  call void @llvm.lifetime.start.p0(i64 4, ptr %8) #10
  call void @llvm.lifetime.start.p0(i64 4, ptr %9) #10
  call void @llvm.lifetime.start.p0(i64 4, ptr %10) #10
  %12 = load ptr, ptr %3, align 8, !tbaa !53
  %13 = getelementptr inbounds nuw %struct.Fra_Man_t_, ptr %12, i32 0, i32 6
  %14 = load ptr, ptr %13, align 8, !tbaa !94
  %15 = getelementptr inbounds nuw %struct.Fra_Cla_t_, ptr %14, i32 0, i32 11
  %16 = load ptr, ptr %15, align 8, !tbaa !101
  %17 = icmp eq ptr %16, null
  br i1 %17, label %26, label %18

18:                                               ; preds = %2
  %19 = load ptr, ptr %3, align 8, !tbaa !53
  %20 = getelementptr inbounds nuw %struct.Fra_Man_t_, ptr %19, i32 0, i32 6
  %21 = load ptr, ptr %20, align 8, !tbaa !94
  %22 = getelementptr inbounds nuw %struct.Fra_Cla_t_, ptr %21, i32 0, i32 11
  %23 = load ptr, ptr %22, align 8, !tbaa !101
  %24 = call i32 @Vec_IntSize(ptr noundef %23)
  %25 = icmp eq i32 %24, 0
  br i1 %25, label %26, label %27

26:                                               ; preds = %18, %2
  store i32 1, ptr %11, align 4
  br label %100

27:                                               ; preds = %18
  %28 = load ptr, ptr %4, align 8, !tbaa !89
  %29 = call i32 @Aig_ManCoNum(ptr noundef %28)
  store i32 %29, ptr %8, align 4, !tbaa !8
  store i32 0, ptr %10, align 4, !tbaa !8
  br label %30

30:                                               ; preds = %90, %27
  %31 = load i32, ptr %10, align 4, !tbaa !8
  %32 = load ptr, ptr %3, align 8, !tbaa !53
  %33 = getelementptr inbounds nuw %struct.Fra_Man_t_, ptr %32, i32 0, i32 6
  %34 = load ptr, ptr %33, align 8, !tbaa !94
  %35 = getelementptr inbounds nuw %struct.Fra_Cla_t_, ptr %34, i32 0, i32 11
  %36 = load ptr, ptr %35, align 8, !tbaa !101
  %37 = call i32 @Vec_IntSize(ptr noundef %36)
  %38 = icmp slt i32 %31, %37
  br i1 %38, label %39, label %47

39:                                               ; preds = %30
  %40 = load ptr, ptr %3, align 8, !tbaa !53
  %41 = getelementptr inbounds nuw %struct.Fra_Man_t_, ptr %40, i32 0, i32 6
  %42 = load ptr, ptr %41, align 8, !tbaa !94
  %43 = getelementptr inbounds nuw %struct.Fra_Cla_t_, ptr %42, i32 0, i32 11
  %44 = load ptr, ptr %43, align 8, !tbaa !101
  %45 = load i32, ptr %10, align 4, !tbaa !8
  %46 = call i32 @Vec_IntEntry(ptr noundef %44, i32 noundef %45)
  store i32 %46, ptr %9, align 4, !tbaa !8
  br label %47

47:                                               ; preds = %39, %30
  %48 = phi i1 [ false, %30 ], [ true, %39 ]
  br i1 %48, label %49, label %93

49:                                               ; preds = %47
  %50 = load ptr, ptr %3, align 8, !tbaa !53
  %51 = getelementptr inbounds nuw %struct.Fra_Man_t_, ptr %50, i32 0, i32 1
  %52 = load ptr, ptr %51, align 8, !tbaa !56
  %53 = load i32, ptr %9, align 4, !tbaa !8
  %54 = call i32 @Fra_ImpLeft(i32 noundef %53)
  %55 = call ptr @Aig_ManObj(ptr noundef %52, i32 noundef %54)
  store ptr %55, ptr %5, align 8, !tbaa !28
  %56 = load ptr, ptr %3, align 8, !tbaa !53
  %57 = getelementptr inbounds nuw %struct.Fra_Man_t_, ptr %56, i32 0, i32 1
  %58 = load ptr, ptr %57, align 8, !tbaa !56
  %59 = load i32, ptr %9, align 4, !tbaa !8
  %60 = call i32 @Fra_ImpRight(i32 noundef %59)
  %61 = call ptr @Aig_ManObj(ptr noundef %58, i32 noundef %60)
  store ptr %61, ptr %6, align 8, !tbaa !28
  %62 = load ptr, ptr %4, align 8, !tbaa !89
  %63 = load ptr, ptr %5, align 8, !tbaa !28
  %64 = getelementptr inbounds nuw %struct.Aig_Obj_t_, ptr %63, i32 0, i32 6
  %65 = load ptr, ptr %64, align 8, !tbaa !90
  %66 = load ptr, ptr %5, align 8, !tbaa !28
  %67 = getelementptr inbounds nuw %struct.Aig_Obj_t_, ptr %66, i32 0, i32 3
  %68 = load i64, ptr %67, align 8
  %69 = lshr i64 %68, 3
  %70 = and i64 %69, 1
  %71 = trunc i64 %70 to i32
  %72 = icmp ne i32 %71, 0
  %73 = xor i1 %72, true
  %74 = zext i1 %73 to i32
  %75 = call ptr @Aig_NotCond(ptr noundef %65, i32 noundef %74)
  %76 = load ptr, ptr %6, align 8, !tbaa !28
  %77 = getelementptr inbounds nuw %struct.Aig_Obj_t_, ptr %76, i32 0, i32 6
  %78 = load ptr, ptr %77, align 8, !tbaa !90
  %79 = load ptr, ptr %6, align 8, !tbaa !28
  %80 = getelementptr inbounds nuw %struct.Aig_Obj_t_, ptr %79, i32 0, i32 3
  %81 = load i64, ptr %80, align 8
  %82 = lshr i64 %81, 3
  %83 = and i64 %82, 1
  %84 = trunc i64 %83 to i32
  %85 = call ptr @Aig_NotCond(ptr noundef %78, i32 noundef %84)
  %86 = call ptr @Aig_Or(ptr noundef %62, ptr noundef %75, ptr noundef %85)
  store ptr %86, ptr %7, align 8, !tbaa !28
  %87 = load ptr, ptr %4, align 8, !tbaa !89
  %88 = load ptr, ptr %7, align 8, !tbaa !28
  %89 = call ptr @Aig_ObjCreateCo(ptr noundef %87, ptr noundef %88)
  br label %90

90:                                               ; preds = %49
  %91 = load i32, ptr %10, align 4, !tbaa !8
  %92 = add nsw i32 %91, 1
  store i32 %92, ptr %10, align 4, !tbaa !8
  br label %30, !llvm.loop !107

93:                                               ; preds = %47
  %94 = load ptr, ptr %4, align 8, !tbaa !89
  %95 = call i32 @Aig_ManCoNum(ptr noundef %94)
  %96 = load i32, ptr %8, align 4, !tbaa !8
  %97 = sub nsw i32 %95, %96
  %98 = load ptr, ptr %4, align 8, !tbaa !89
  %99 = getelementptr inbounds nuw %struct.Aig_Man_t_, ptr %98, i32 0, i32 11
  store i32 %97, ptr %99, align 4, !tbaa !108
  store i32 0, ptr %11, align 4
  br label %100

100:                                              ; preds = %93, %26
  call void @llvm.lifetime.end.p0(i64 4, ptr %10) #10
  call void @llvm.lifetime.end.p0(i64 4, ptr %9) #10
  call void @llvm.lifetime.end.p0(i64 4, ptr %8) #10
  call void @llvm.lifetime.end.p0(i64 8, ptr %7) #10
  call void @llvm.lifetime.end.p0(i64 8, ptr %6) #10
  call void @llvm.lifetime.end.p0(i64 8, ptr %5) #10
  %101 = load i32, ptr %11, align 4
  switch i32 %101, label %103 [
    i32 0, label %102
    i32 1, label %102
  ]

102:                                              ; preds = %100, %100
  ret void

103:                                              ; preds = %100
  unreachable
}