; Function Attrs: nounwind uwtable
define void @Fra_ImpRecordInManager(ptr noundef readonly captures(none) %0, ptr noundef %1) local_unnamed_addr #0 {
  %3 = getelementptr inbounds nuw i8, ptr %0, i64 48
  %4 = load ptr, ptr %3, align 8, !tbaa !91
  %5 = getelementptr inbounds nuw i8, ptr %4, i64 80
  %6 = load ptr, ptr %5, align 8, !tbaa !97
  %7 = icmp eq ptr %6, null
  br i1 %7, label %58, label %8

8:                                                ; preds = %2
  %9 = getelementptr i8, ptr %6, i64 4
  %.val22 = load i32, ptr %9, align 4, !tbaa !38
  %10 = icmp eq i32 %.val22, 0
  br i1 %10, label %58, label %11

11:                                               ; preds = %8
  %12 = getelementptr i8, ptr %1, i64 140
  %.val26 = load i32, ptr %12, align 4, !tbaa !29
  %13 = icmp sgt i32 %.val22, 0
  br i1 %13, label %Aig_ManObj.exit30.lr.ph, label %.critedge

Aig_ManObj.exit30.lr.ph:                          ; preds = %11
  %14 = getelementptr inbounds nuw i8, ptr %0, i64 8
  br label %Aig_ManObj.exit30

Aig_ManObj.exit30:                                ; preds = %Aig_ManObj.exit30.lr.ph, %Aig_ManObj.exit30
  %indvars.iv = phi i64 [ 0, %Aig_ManObj.exit30.lr.ph ], [ %indvars.iv.next, %Aig_ManObj.exit30 ]
  %15 = phi ptr [ %6, %Aig_ManObj.exit30.lr.ph ], [ %52, %Aig_ManObj.exit30 ]
  %16 = getelementptr i8, ptr %15, i64 8
  %.val23 = load ptr, ptr %16, align 8, !tbaa !43
  %17 = getelementptr inbounds nuw i32, ptr %.val23, i64 %indvars.iv
  %18 = load i32, ptr %17, align 4, !tbaa !29
  %19 = load ptr, ptr %14, align 8, !tbaa !50
  %20 = and i32 %18, 65535
  %21 = getelementptr i8, ptr %19, i64 32
  %.val25 = load ptr, ptr %21, align 8, !tbaa !10, !nonnull !90, !noundef !90
  %22 = getelementptr i8, ptr %.val25, i64 8
  %.val.i = load ptr, ptr %22, align 8, !tbaa !25
  %23 = zext nneg i32 %20 to i64
  %24 = getelementptr inbounds nuw ptr, ptr %.val.i, i64 %23
  %25 = load ptr, ptr %24, align 8, !tbaa !26
  %26 = ashr i32 %18, 16
  %27 = sext i32 %26 to i64
  %28 = getelementptr inbounds ptr, ptr %.val.i, i64 %27
  %29 = load ptr, ptr %28, align 8, !tbaa !26
  %30 = getelementptr inbounds nuw i8, ptr %25, i64 40
  %31 = load ptr, ptr %30, align 8, !tbaa !82
  %32 = getelementptr inbounds nuw i8, ptr %25, i64 24
  %33 = load i64, ptr %32, align 8
  %34 = ptrtoint ptr %31 to i64
  %35 = lshr i64 %33, 3
  %.lobit = and i64 %35, 1
  %36 = xor i64 %.lobit, %34
  %37 = xor i64 %36, 1
  %38 = inttoptr i64 %37 to ptr
  %39 = getelementptr inbounds nuw i8, ptr %29, i64 40
  %40 = load ptr, ptr %39, align 8, !tbaa !82
  %41 = getelementptr inbounds nuw i8, ptr %29, i64 24
  %42 = load i64, ptr %41, align 8
  %43 = lshr i64 %42, 3
  %44 = and i64 %43, 1
  %45 = ptrtoint ptr %40 to i64
  %46 = xor i64 %44, %45
  %47 = inttoptr i64 %46 to ptr
  %48 = tail call ptr @Aig_Or(ptr noundef %1, ptr noundef %38, ptr noundef %47) #20
  %49 = tail call ptr @Aig_ObjCreateCo(ptr noundef %1, ptr noundef %48) #20
  %indvars.iv.next = add nuw nsw i64 %indvars.iv, 1
  %50 = load ptr, ptr %3, align 8, !tbaa !91
  %51 = getelementptr inbounds nuw i8, ptr %50, i64 80
  %52 = load ptr, ptr %51, align 8, !tbaa !97
  %53 = getelementptr i8, ptr %52, i64 4
  %.val = load i32, ptr %53, align 4, !tbaa !38
  %54 = sext i32 %.val to i64
  %55 = icmp slt i64 %indvars.iv.next, %54
  br i1 %55, label %Aig_ManObj.exit30, label %.critedge.loopexit, !llvm.loop !102

.critedge.loopexit:                               ; preds = %Aig_ManObj.exit30
  %.val27.pre = load i32, ptr %12, align 4, !tbaa !29
  br label %.critedge

.critedge:                                        ; preds = %.critedge.loopexit, %11
  %.val27 = phi i32 [ %.val27.pre, %.critedge.loopexit ], [ %.val26, %11 ]
  %56 = sub nsw i32 %.val27, %.val26
  %57 = getelementptr inbounds nuw i8, ptr %1, i64 116
  store i32 %56, ptr %57, align 4, !tbaa !103
  br label %58

58:                                               ; preds = %2, %8, %.critedge
  ret void
}